; Function Attrs: nounwind uwtable
define ptr @l_Lean_Elab_Tactic_grind___lambda__1(ptr noundef %0, ptr noundef readonly captures(none) %1, ptr noundef %2, ptr noundef %3, ptr noundef %4, ptr noundef %5, ptr noundef %6, ptr noundef %7, ptr noundef %8, ptr noundef %9, ptr noundef %10, ptr noundef %11) local_unnamed_addr #0 {
  %13 = tail call ptr @l_Lean_MVarId_assign___at_Lean_Elab_Tactic_refineCore___spec__1(ptr noundef %0, ptr noundef %2, ptr noundef %3, ptr noundef %4, ptr noundef %5, ptr noundef %6, ptr noundef %7, ptr noundef %8, ptr noundef %9, ptr noundef %10, ptr noundef %11) #5
  %.val = load i32, ptr %13, align 4, !tbaa !8
  %14 = icmp eq i32 %.val, 1
  br i1 %14, label %15, label %37

15:                                               ; preds = %12
  %16 = getelementptr inbounds nuw i8, ptr %13, i64 8
  %17 = load ptr, ptr %16, align 8, !tbaa !4
  %18 = ptrtoint ptr %17 to i64
  %19 = and i64 %18, 1
  %.not44 = icmp eq i64 %19, 0
  br i1 %.not44, label %20, label %lean_dec.exit30

20:                                               ; preds = %15
  %21 = load i32, ptr %17, align 4, !tbaa !8
  %22 = icmp sgt i32 %21, 1
  br i1 %22, label %23, label %25, !prof !11

23:                                               ; preds = %20
  %24 = add nsw i32 %21, -1
  store i32 %24, ptr %17, align 4, !tbaa !8
  br label %lean_dec.exit30

25:                                               ; preds = %20
  %.not.i = icmp eq i32 %21, 0
  br i1 %.not.i, label %lean_dec.exit30, label %26

26:                                               ; preds = %25
  tail call void @lean_dec_ref_cold(ptr noundef nonnull %17) #5
  br label %lean_dec.exit30

lean_dec.exit30:                                  ; preds = %26, %25, %23, %15
  %27 = getelementptr inbounds nuw i8, ptr %1, i64 40
  %28 = load ptr, ptr %27, align 8, !tbaa !4
  %29 = ptrtoint ptr %28 to i64
  %30 = and i64 %29, 1
  %.not45 = icmp eq i64 %30, 0
  br i1 %.not45, label %31, label %lean_inc.exit32

31:                                               ; preds = %lean_dec.exit30
  %.val.i = load i32, ptr %28, align 4, !tbaa !8
  %32 = icmp sgt i32 %.val.i, 0
  br i1 %32, label %33, label %35, !prof !11

33:                                               ; preds = %31
  %34 = add nuw i32 %.val.i, 1
  store i32 %34, ptr %28, align 4, !tbaa !8
  br label %lean_inc.exit32

35:                                               ; preds = %31
  %.not.i35 = icmp eq i32 %.val.i, 0
  br i1 %.not.i35, label %lean_inc.exit32, label %36

36:                                               ; preds = %35
  tail call void @lean_inc_ref_cold(ptr noundef nonnull %28) #5
  br label %lean_inc.exit32

lean_inc.exit32:                                  ; preds = %36, %35, %33, %lean_dec.exit30
  store ptr %28, ptr %16, align 8, !tbaa !4
  br label %73

37:                                               ; preds = %12
  %38 = getelementptr inbounds nuw i8, ptr %13, i64 16
  %39 = load ptr, ptr %38, align 8, !tbaa !4
  %40 = ptrtoint ptr %39 to i64
  %41 = and i64 %40, 1
  %.not = icmp eq i64 %41, 0
  br i1 %.not, label %42, label %lean_inc.exit31

42:                                               ; preds = %37
  %.val.i36 = load i32, ptr %39, align 4, !tbaa !8
  %43 = icmp sgt i32 %.val.i36, 0
  br i1 %43, label %44, label %46, !prof !11

44:                                               ; preds = %42
  %45 = add nuw i32 %.val.i36, 1
  store i32 %45, ptr %39, align 4, !tbaa !8
  br label %lean_inc.exit31

46:                                               ; preds = %42
  %.not.i37 = icmp eq i32 %.val.i36, 0
  br i1 %.not.i37, label %lean_inc.exit31, label %47

47:                                               ; preds = %46
  tail call void @lean_inc_ref_cold(ptr noundef nonnull %39) #5
  br label %lean_inc.exit31

lean_inc.exit31:                                  ; preds = %47, %46, %44, %37
  %48 = ptrtoint ptr %13 to i64
  %49 = and i64 %48, 1
  %.not42 = icmp eq i64 %49, 0
  br i1 %.not42, label %50, label %lean_dec.exit

50:                                               ; preds = %lean_inc.exit31
  %51 = load i32, ptr %13, align 4, !tbaa !8
  %52 = icmp sgt i32 %51, 1
  br i1 %52, label %53, label %55, !prof !11

53:                                               ; preds = %50
  %54 = add nsw i32 %51, -1
  store i32 %54, ptr %13, align 4, !tbaa !8
  br label %lean_dec.exit

55:                                               ; preds = %50
  %.not.i33 = icmp eq i32 %51, 0
  br i1 %.not.i33, label %lean_dec.exit, label %56

56:                                               ; preds = %55
  tail call void @lean_dec_ref_cold(ptr noundef nonnull %13) #5
  br label %lean_dec.exit

lean_dec.exit:                                    ; preds = %56, %55, %53, %lean_inc.exit31
  %57 = getelementptr inbounds nuw i8, ptr %1, i64 40
  %58 = load ptr, ptr %57, align 8, !tbaa !4
  %59 = ptrtoint ptr %58 to i64
  %60 = and i64 %59, 1
  %.not43 = icmp eq i64 %60, 0
  br i1 %.not43, label %61, label %lean_inc.exit

61:                                               ; preds = %lean_dec.exit
  %.val.i39 = load i32, ptr %58, align 4, !tbaa !8
  %62 = icmp sgt i32 %.val.i39, 0
  br i1 %62, label %63, label %65, !prof !11

63:                                               ; preds = %61
  %64 = add nuw i32 %.val.i39, 1
  store i32 %64, ptr %58, align 4, !tbaa !8
  br label %lean_inc.exit

65:                                               ; preds = %61
  %.not.i40 = icmp eq i32 %.val.i39, 0
  br i1 %.not.i40, label %lean_inc.exit, label %66

66:                                               ; preds = %65
  tail call void @lean_inc_ref_cold(ptr noundef nonnull %58) #5
  br label %lean_inc.exit

lean_inc.exit:                                    ; preds = %66, %65, %63, %lean_dec.exit
  tail call void @lean_inc_heartbeat() #5
  %67 = tail call noalias ptr @mi_malloc_small(i64 noundef 24) #5
  %68 = icmp eq ptr %67, null
  br i1 %68, label %69, label %lean_alloc_ctor.exit

69:                                               ; preds = %lean_inc.exit
  tail call void @lean_internal_panic_out_of_memory() #6
  unreachable

lean_alloc_ctor.exit:                             ; preds = %lean_inc.exit
  %70 = getelementptr inbounds nuw i8, ptr %67, i64 4
  store i32 1, ptr %67, align 4, !tbaa !8
  store i32 131096, ptr %70, align 4
  %71 = getelementptr inbounds nuw i8, ptr %67, i64 8
  store ptr %58, ptr %71, align 8, !tbaa !4
  %72 = getelementptr inbounds nuw i8, ptr %67, i64 16
  store ptr %39, ptr %72, align 8, !tbaa !4
  br label %73

73:                                               ; preds = %lean_alloc_ctor.exit, %lean_inc.exit32
  %.0 = phi ptr [ %13, %lean_inc.exit32 ], [ %67, %lean_alloc_ctor.exit ]
  ret ptr %.0
}